target datalayout = "e-m:e-p270:32:32-p271:32:32-p272:64:64-i64:64-i128:128-f80:128-n8:16:32:64-S128"
target triple = "x86_64-unknown-linux-gnu"

%"class.std::__shared_count" = type { ptr }
%"class.folly::Range.3" = type { ptr, ptr }
%"class.std::__shared_ptr" = type { ptr, %"class.std::__shared_count" }

; Function Attrs: mustprogress nounwind uwtable
define linkonce_odr noundef ptr @_ZNKSt12__shared_ptrIN8facebook5velox10BaseVectorELN9__gnu_cxx12_Lock_policyE2EE3getEv(ptr noundef nonnull align 8 dereferenceable(16) %this) #1 comdat align 2 {
entry:
  %this.addr = alloca ptr, align 8
  store ptr %this, ptr %this.addr, align 8
  %this1 = load ptr, ptr %this.addr, align 8
  %_M_ptr = getelementptr inbounds %"class.std::__shared_ptr", ptr %this1, i32 0, i32 0
  %0 = load ptr, ptr %_M_ptr, align 8
  ret ptr %0
}

; Function Attrs: mustprogress nounwind uwtable
define linkonce_odr noundef ptr @_ZNKSt19__shared_ptr_accessIN8facebook5velox10BaseVectorELN9__gnu_cxx12_Lock_policyE2ELb0ELb0EE6_M_getEv(ptr noundef nonnull align 1 dereferenceable(1) %this) #1 comdat align 2 {
entry:
  %this.addr = alloca ptr, align 8
  store ptr %this, ptr %this.addr, align 8
  %this1 = load ptr, ptr %this.addr, align 8
  %call = call noundef ptr @_ZNKSt12__shared_ptrIN8facebook5velox10BaseVectorELN9__gnu_cxx12_Lock_policyE2EE3getEv(ptr noundef nonnull align 8 dereferenceable(16) %this1) #20
  ret ptr %call
}

; Function Attrs: mustprogress nounwind uwtable
define linkonce_odr noundef ptr @_ZNKSt19__shared_ptr_accessIN8facebook5velox10BaseVectorELN9__gnu_cxx12_Lock_policyE2ELb0ELb0EEptEv(ptr noundef nonnull align 1 dereferenceable(1) %this) #1 comdat align 2 {
entry:
  %this.addr = alloca ptr, align 8
  store ptr %this, ptr %this.addr, align 8
  %this1 = load ptr, ptr %this.addr, align 8
  %call = call noundef ptr @_ZNKSt19__shared_ptr_accessIN8facebook5velox10BaseVectorELN9__gnu_cxx12_Lock_policyE2ELb0ELb0EE6_M_getEv(ptr noundef nonnull align 1 dereferenceable(1) %this1) #20
  ret ptr %call
}

; Function Attrs: mustprogress uwtable
define void @_ZN8facebook5velox10serializer6presto17PrestoVectorSerde22estimateSerializedSizeESt10shared_ptrINS0_10BaseVectorEEN5folly5RangeIPKiEEPPiRNS0_7ScratchE(ptr noundef nonnull align 8 dereferenceable(8) %this, ptr noundef %vector, ptr %rows.coerce0, ptr %rows.coerce1, ptr noundef %sizes, ptr noundef nonnull align 8 dereferenceable(24) %scratch) unnamed_addr #0 align 2 {
entry:
  %rows = alloca %"class.folly::Range.3", align 8
  %this.addr = alloca ptr, align 8
  %vector.indirect_addr = alloca ptr, align 8
  %sizes.addr = alloca ptr, align 8
  %scratch.addr = alloca ptr, align 8
  %0 = getelementptr inbounds { ptr, ptr }, ptr %rows, i32 0, i32 0
  store ptr %rows.coerce0, ptr %0, align 8
  %1 = getelementptr inbounds { ptr, ptr }, ptr %rows, i32 0, i32 1
  store ptr %rows.coerce1, ptr %1, align 8
  store ptr %this, ptr %this.addr, align 8
  store ptr %vector, ptr %vector.indirect_addr, align 8
  store ptr %sizes, ptr %sizes.addr, align 8
  store ptr %scratch, ptr %scratch.addr, align 8
  %call = call noundef ptr @_ZNKSt19__shared_ptr_accessIN8facebook5velox10BaseVectorELN9__gnu_cxx12_Lock_policyE2ELb0ELb0EEptEv(ptr noundef nonnull align 1 dereferenceable(1) %vector) #20
  %vtable = load ptr, ptr %call, align 8
  %vfn = getelementptr inbounds ptr, ptr %vtable, i64 32
  %2 = load ptr, ptr %vfn, align 8
  %call2 = call noundef ptr %2(ptr noundef nonnull align 8 dereferenceable(99) %call)
  %3 = load ptr, ptr %sizes.addr, align 8
  %4 = load ptr, ptr %scratch.addr, align 8
  call void @_ZN8facebook5velox10serializer6presto12_GLOBAL__N_125estimateSerializedSizeIntEPKNS0_10BaseVectorERKN5folly5RangeIPKiEEPPiRNS0_7ScratchE(ptr noundef %call2, ptr noundef nonnull align 8 dereferenceable(16) %rows, ptr noundef %3, ptr noundef nonnull align 8 dereferenceable(24) %4)
  ret void
}