; Function Attrs: mustprogress uwtable
define void @_ZN8facebook5velox10serializer6presto17PrestoVectorSerde22estimateSerializedSizeESt10shared_ptrINS0_10BaseVectorEEN5folly5RangeIPKiEEPPiRNS0_7ScratchE(ptr nocapture nonnull readnone align 8 %this, ptr nocapture noundef readonly %vector, ptr %rows.coerce0, ptr %rows.coerce1, ptr noundef %sizes, ptr noundef nonnull align 8 dereferenceable(24) %scratch) unnamed_addr #0 align 2 {
entry:
  %rows = alloca %"class.folly::Range.3", align 8
  store ptr %rows.coerce0, ptr %rows, align 8
  %0 = getelementptr inbounds i8, ptr %rows, i64 8
  store ptr %rows.coerce1, ptr %0, align 8
  %1 = load ptr, ptr %vector, align 8
  %vtable = load ptr, ptr %1, align 8
  %vfn = getelementptr inbounds i8, ptr %vtable, i64 256
  %2 = load ptr, ptr %vfn, align 8
  %call2 = tail call noundef ptr %2(ptr noundef nonnull align 8 dereferenceable(99) %1)
  call fastcc void @_ZN8facebook5velox10serializer6presto12_GLOBAL__N_125estimateSerializedSizeIntEPKNS0_10BaseVectorERKN5folly5RangeIPKiEEPPiRNS0_7ScratchE(ptr noundef %call2, ptr noundef nonnull align 8 dereferenceable(16) %rows, ptr noundef %sizes, ptr noundef nonnull align 8 dereferenceable(24) %scratch)
  ret void
}